; Function Attrs: mustprogress uwtable
define noundef double @_ZNK8QuantLib30SquareRootProcessRNDCalculator14stationary_cdfEd(ptr nocapture noundef nonnull readonly align 8 dereferenceable(48) %this, double noundef %v) local_unnamed_addr #1 align 2 {
entry:
  %ref.tmp.i.i = alloca %"struct.boost::math::policies::policy", align 1
  %df_ = getelementptr inbounds nuw i8, ptr %this, i64 40
  %0 = load double, ptr %df_, align 8, !tbaa !14
  %mul = fmul double %0, 5.000000e-01
  %theta_ = getelementptr inbounds nuw i8, ptr %this, i64 24
  %1 = load double, ptr %theta_, align 8, !tbaa !12
  %div = fdiv double %mul, %1
  %mul2 = fmul double %v, %div
  %conv.i.i = fpext double %mul to x86_fp80
  %conv1.i.i = fpext double %mul2 to x86_fp80
  call void @llvm.lifetime.start.p0(i64 1, ptr nonnull %ref.tmp.i.i) #35
  %call.i.i = call noundef x86_fp80 @_ZN5boost4math6detail20gamma_incomplete_impIeNS0_8policies6policyINS3_13promote_floatILb0EEENS3_14promote_doubleILb0EEENS3_14default_policyES9_S9_S9_S9_S9_S9_S9_S9_S9_S9_EEEET_SB_SB_bbRKT0_PSB_(x86_fp80 noundef %conv.i.i, x86_fp80 noundef %conv1.i.i, i1 noundef zeroext true, i1 noundef zeroext false, ptr noundef nonnull align 1 dereferenceable(1) %ref.tmp.i.i, ptr noundef null)
  %2 = call noundef x86_fp80 @llvm.fabs.f80(x86_fp80 %call.i.i)
  %cmp.i.i.i = fcmp ogt x86_fp80 %2, 0xK43FEFFFFFFFFFFFFF800
  br i1 %cmp.i.i.i, label %if.then.i.i.i, label %_ZN5boost4math7gamma_pIddEENS0_5tools12promote_argsIT_T0_ffffE4typeES4_S5_.exit

if.then.i.i.i:                                    ; preds = %entry
  call void @_ZN5boost4math8policies6detail11raise_errorISt14overflow_errordEEvPKcS6_(ptr noundef nonnull @.str.78, ptr noundef nonnull @.str.25)
  br label %_ZN5boost4math7gamma_pIddEENS0_5tools12promote_argsIT_T0_ffffE4typeES4_S5_.exit

_ZN5boost4math7gamma_pIddEENS0_5tools12promote_argsIT_T0_ffffE4typeES4_S5_.exit: ; preds = %entry, %if.then.i.i.i
  %retval.0.i.i.i = fptrunc x86_fp80 %call.i.i to double
  call void @llvm.lifetime.end.p0(i64 1, ptr nonnull %ref.tmp.i.i) #35
  ret double %retval.0.i.i.i
}